target datalayout = "e-m:e-p270:32:32-p271:32:32-p272:64:64-i64:64-i128:128-f80:128-n8:16:32:64-S128"
target triple = "x86_64-unknown-linux-gnu"

%struct.SCSISense = type { i8, i8, i8 }

@.str = private unnamed_addr constant [11 x i8] c"in_len > 0\00", align 1
@.str.1 = private unnamed_addr constant [21 x i8] c"../qemu/scsi/utils.c\00", align 1
@__PRETTY_FUNCTION__.scsi_parse_sense_buf = private unnamed_addr constant [53 x i8] c"SCSISense scsi_parse_sense_buf(const uint8_t *, int)\00", align 1
@sense_code_IO_ERROR = dso_local constant %struct.SCSISense { i8 11, i8 0, i8 6 }, align 1
@sense_code_NO_SENSE = dso_local constant %struct.SCSISense zeroinitializer, align 1

; Function Attrs: nounwind sspstrong uwtable
define dso_local i24 @scsi_parse_sense_buf(ptr noundef %in_buf, i32 noundef %in_len) #0 {
entry:
  %retval = alloca %struct.SCSISense, align 1
  %in_buf.addr = alloca ptr, align 8
  %in_len.addr = alloca i32, align 4
  %fixed_in = alloca i8, align 1
  %sense = alloca %struct.SCSISense, align 1
  %retval.coerce = alloca i24, align 4
  store ptr %in_buf, ptr %in_buf.addr, align 8
  store i32 %in_len, ptr %in_len.addr, align 4
  %0 = load i32, ptr %in_len.addr, align 4
  %cmp = icmp sgt i32 %0, 0
  br i1 %cmp, label %if.then, label %if.else

if.then:                                          ; preds = %entry
  br label %if.end

if.else:                                          ; preds = %entry
  call void @__assert_fail(ptr noundef @.str, ptr noundef @.str.1, i32 noundef 100, ptr noundef @__PRETTY_FUNCTION__.scsi_parse_sense_buf) #5
  unreachable

if.end:                                           ; preds = %if.then
  %1 = load ptr, ptr %in_buf.addr, align 8
  %arrayidx = getelementptr i8, ptr %1, i64 0
  %2 = load i8, ptr %arrayidx, align 1
  %conv = zext i8 %2 to i32
  %and = and i32 %conv, 2
  %cmp1 = icmp eq i32 %and, 0
  %frombool = zext i1 %cmp1 to i8
  store i8 %frombool, ptr %fixed_in, align 1
  %3 = load i8, ptr %fixed_in, align 1
  %tobool = trunc i8 %3 to i1
  br i1 %tobool, label %if.then3, label %if.else11

if.then3:                                         ; preds = %if.end
  %4 = load i32, ptr %in_len.addr, align 4
  %cmp4 = icmp slt i32 %4, 14
  br i1 %cmp4, label %if.then6, label %if.end7

if.then6:                                         ; preds = %if.then3
  call void @llvm.memcpy.p0.p0.i64(ptr align 1 %retval, ptr align 1 @sense_code_IO_ERROR, i64 3, i1 false)
  br label %return

if.end7:                                          ; preds = %if.then3
  %5 = load ptr, ptr %in_buf.addr, align 8
  %arrayidx8 = getelementptr i8, ptr %5, i64 2
  %6 = load i8, ptr %arrayidx8, align 1
  %key = getelementptr inbounds %struct.SCSISense, ptr %sense, i32 0, i32 0
  store i8 %6, ptr %key, align 1
  %7 = load ptr, ptr %in_buf.addr, align 8
  %arrayidx9 = getelementptr i8, ptr %7, i64 12
  %8 = load i8, ptr %arrayidx9, align 1
  %asc = getelementptr inbounds %struct.SCSISense, ptr %sense, i32 0, i32 1
  store i8 %8, ptr %asc, align 1
  %9 = load ptr, ptr %in_buf.addr, align 8
  %arrayidx10 = getelementptr i8, ptr %9, i64 13
  %10 = load i8, ptr %arrayidx10, align 1
  %ascq = getelementptr inbounds %struct.SCSISense, ptr %sense, i32 0, i32 2
  store i8 %10, ptr %ascq, align 1
  br label %if.end22

if.else11:                                        ; preds = %if.end
  %11 = load i32, ptr %in_len.addr, align 4
  %cmp12 = icmp slt i32 %11, 4
  br i1 %cmp12, label %if.then14, label %if.end15

if.then14:                                        ; preds = %if.else11
  call void @llvm.memcpy.p0.p0.i64(ptr align 1 %retval, ptr align 1 @sense_code_IO_ERROR, i64 3, i1 false)
  br label %return

if.end15:                                         ; preds = %if.else11
  %12 = load ptr, ptr %in_buf.addr, align 8
  %arrayidx16 = getelementptr i8, ptr %12, i64 1
  %13 = load i8, ptr %arrayidx16, align 1
  %key17 = getelementptr inbounds %struct.SCSISense, ptr %sense, i32 0, i32 0
  store i8 %13, ptr %key17, align 1
  %14 = load ptr, ptr %in_buf.addr, align 8
  %arrayidx18 = getelementptr i8, ptr %14, i64 2
  %15 = load i8, ptr %arrayidx18, align 1
  %asc19 = getelementptr inbounds %struct.SCSISense, ptr %sense, i32 0, i32 1
  store i8 %15, ptr %asc19, align 1
  %16 = load ptr, ptr %in_buf.addr, align 8
  %arrayidx20 = getelementptr i8, ptr %16, i64 3
  %17 = load i8, ptr %arrayidx20, align 1
  %ascq21 = getelementptr inbounds %struct.SCSISense, ptr %sense, i32 0, i32 2
  store i8 %17, ptr %ascq21, align 1
  br label %if.end22

if.end22:                                         ; preds = %if.end15, %if.end7
  call void @llvm.memcpy.p0.p0.i64(ptr align 1 %retval, ptr align 1 %sense, i64 3, i1 false)
  br label %return

return:                                           ; preds = %if.end22, %if.then14, %if.then6
  call void @llvm.memcpy.p0.p0.i64(ptr align 4 %retval.coerce, ptr align 1 %retval, i64 3, i1 false)
  %18 = load i24, ptr %retval.coerce, align 4
  ret i24 %18
}

; Function Attrs: nounwind sspstrong uwtable
define dso_local i32 @scsi_build_sense_buf(ptr noundef %out_buf, i64 noundef %size, i24 %sense.coerce, i1 noundef zeroext %fixed_sense) #0 {
entry:
  %sense = alloca %struct.SCSISense, align 1
  %tmp.coerce = alloca i24, align 4
  %out_buf.addr = alloca ptr, align 8
  %size.addr = alloca i64, align 8
  %fixed_sense.addr = alloca i8, align 1
  %len = alloca i32, align 4
  %buf = alloca [18 x i8], align 16
  %_a0 = alloca i64, align 8
  %_b1 = alloca i64, align 8
  %tmp = alloca i64, align 8
  store i24 %sense.coerce, ptr %tmp.coerce, align 4
  call void @llvm.memcpy.p0.p0.i64(ptr align 1 %sense, ptr align 4 %tmp.coerce, i64 3, i1 false)
  store ptr %out_buf, ptr %out_buf.addr, align 8
  store i64 %size, ptr %size.addr, align 8
  %frombool = zext i1 %fixed_sense to i8
  store i8 %frombool, ptr %fixed_sense.addr, align 1
  call void @llvm.memset.p0.i64(ptr align 16 %buf, i8 0, i64 18, i1 false)
  %0 = load i8, ptr %fixed_sense.addr, align 1
  %tobool = trunc i8 %0 to i1
  br i1 %tobool, label %if.then, label %if.else

if.then:                                          ; preds = %entry
  %arrayidx = getelementptr [18 x i8], ptr %buf, i64 0, i64 0
  store i8 112, ptr %arrayidx, align 16
  %key = getelementptr inbounds %struct.SCSISense, ptr %sense, i32 0, i32 0
  %1 = load i8, ptr %key, align 1
  %arrayidx1 = getelementptr [18 x i8], ptr %buf, i64 0, i64 2
  store i8 %1, ptr %arrayidx1, align 2
  %arrayidx2 = getelementptr [18 x i8], ptr %buf, i64 0, i64 7
  store i8 10, ptr %arrayidx2, align 1
  %asc = getelementptr inbounds %struct.SCSISense, ptr %sense, i32 0, i32 1
  %2 = load i8, ptr %asc, align 1
  %arrayidx3 = getelementptr [18 x i8], ptr %buf, i64 0, i64 12
  store i8 %2, ptr %arrayidx3, align 4
  %ascq = getelementptr inbounds %struct.SCSISense, ptr %sense, i32 0, i32 2
  %3 = load i8, ptr %ascq, align 1
  %arrayidx4 = getelementptr [18 x i8], ptr %buf, i64 0, i64 13
  store i8 %3, ptr %arrayidx4, align 1
  store i32 18, ptr %len, align 4
  br label %if.end

if.else:                                          ; preds = %entry
  %arrayidx5 = getelementptr [18 x i8], ptr %buf, i64 0, i64 0
  store i8 114, ptr %arrayidx5, align 16
  %key6 = getelementptr inbounds %struct.SCSISense, ptr %sense, i32 0, i32 0
  %4 = load i8, ptr %key6, align 1
  %arrayidx7 = getelementptr [18 x i8], ptr %buf, i64 0, i64 1
  store i8 %4, ptr %arrayidx7, align 1
  %asc8 = getelementptr inbounds %struct.SCSISense, ptr %sense, i32 0, i32 1
  %5 = load i8, ptr %asc8, align 1
  %arrayidx9 = getelementptr [18 x i8], ptr %buf, i64 0, i64 2
  store i8 %5, ptr %arrayidx9, align 2
  %ascq10 = getelementptr inbounds %struct.SCSISense, ptr %sense, i32 0, i32 2
  %6 = load i8, ptr %ascq10, align 1
  %arrayidx11 = getelementptr [18 x i8], ptr %buf, i64 0, i64 3
  store i8 %6, ptr %arrayidx11, align 1
  store i32 8, ptr %len, align 4
  br label %if.end

if.end:                                           ; preds = %if.else, %if.then
  %7 = load i32, ptr %len, align 4
  %conv = sext i32 %7 to i64
  store i64 %conv, ptr %_a0, align 8
  %8 = load i64, ptr %size.addr, align 8
  store i64 %8, ptr %_b1, align 8
  %9 = load i64, ptr %_a0, align 8
  %10 = load i64, ptr %_b1, align 8
  %cmp = icmp ult i64 %9, %10
  br i1 %cmp, label %cond.true, label %cond.false

cond.true:                                        ; preds = %if.end
  %11 = load i64, ptr %_a0, align 8
  br label %cond.end

cond.false:                                       ; preds = %if.end
  %12 = load i64, ptr %_b1, align 8
  br label %cond.end

cond.end:                                         ; preds = %cond.false, %cond.true
  %cond = phi i64 [ %11, %cond.true ], [ %12, %cond.false ]
  store i64 %cond, ptr %tmp, align 8
  %13 = load i64, ptr %tmp, align 8
  %conv13 = trunc i64 %13 to i32
  store i32 %conv13, ptr %len, align 4
  %14 = load ptr, ptr %out_buf.addr, align 8
  %arraydecay = getelementptr inbounds [18 x i8], ptr %buf, i64 0, i64 0
  %15 = load i32, ptr %len, align 4
  %conv14 = sext i32 %15 to i64
  call void @llvm.memcpy.p0.p0.i64(ptr align 1 %14, ptr align 16 %arraydecay, i64 %conv14, i1 false)
  %16 = load i32, ptr %len, align 4
  ret i32 %16
}

; Function Attrs: nounwind sspstrong uwtable
define dso_local i32 @scsi_convert_sense(ptr noundef %in_buf, i32 noundef %in_len, ptr noundef %buf, i32 noundef %len, i1 noundef zeroext %fixed) #0 {
entry:
  %retval = alloca i32, align 4
  %in_buf.addr = alloca ptr, align 8
  %in_len.addr = alloca i32, align 4
  %buf.addr = alloca ptr, align 8
  %len.addr = alloca i32, align 4
  %fixed.addr = alloca i8, align 1
  %sense = alloca %struct.SCSISense, align 1
  %fixed_in = alloca i8, align 1
  %sense_code_NO_SENSE.coerce = alloca i24, align 4
  %_a2 = alloca i32, align 4
  %_b3 = alloca i32, align 4
  %tmp = alloca i32, align 4
  %_a4 = alloca i32, align 4
  %_b5 = alloca i32, align 4
  %tmp15 = alloca i32, align 4
  %tmp22 = alloca %struct.SCSISense, align 1
  %tmp.coerce = alloca i24, align 4
  %sense.coerce = alloca i24, align 4
  store ptr %in_buf, ptr %in_buf.addr, align 8
  store i32 %in_len, ptr %in_len.addr, align 4
  store ptr %buf, ptr %buf.addr, align 8
  store i32 %len, ptr %len.addr, align 4
  %frombool = zext i1 %fixed to i8
  store i8 %frombool, ptr %fixed.addr, align 1
  %0 = load i32, ptr %in_len.addr, align 4
  %cmp = icmp eq i32 %0, 0
  br i1 %cmp, label %if.then, label %if.end

if.then:                                          ; preds = %entry
  %1 = load ptr, ptr %buf.addr, align 8
  %2 = load i32, ptr %len.addr, align 4
  %conv = sext i32 %2 to i64
  %3 = load i8, ptr %fixed.addr, align 1
  %tobool = trunc i8 %3 to i1
  call void @llvm.memcpy.p0.p0.i64(ptr align 4 %sense_code_NO_SENSE.coerce, ptr align 1 @sense_code_NO_SENSE, i64 3, i1 false)
  %4 = load i24, ptr %sense_code_NO_SENSE.coerce, align 4
  %call = call i32 @scsi_build_sense_buf(ptr noundef %1, i64 noundef %conv, i24 %4, i1 noundef zeroext %tobool)
  store i32 %call, ptr %retval, align 4
  br label %return

if.end:                                           ; preds = %entry
  %5 = load ptr, ptr %in_buf.addr, align 8
  %arrayidx = getelementptr i8, ptr %5, i64 0
  %6 = load i8, ptr %arrayidx, align 1
  %conv1 = zext i8 %6 to i32
  %and = and i32 %conv1, 2
  %cmp2 = icmp eq i32 %and, 0
  %frombool4 = zext i1 %cmp2 to i8
  store i8 %frombool4, ptr %fixed_in, align 1
  %7 = load i8, ptr %fixed.addr, align 1
  %tobool5 = trunc i8 %7 to i1
  %conv6 = zext i1 %tobool5 to i32
  %8 = load i8, ptr %fixed_in, align 1
  %tobool7 = trunc i8 %8 to i1
  %conv8 = zext i1 %tobool7 to i32
  %cmp9 = icmp eq i32 %conv6, %conv8
  br i1 %cmp9, label %if.then11, label %if.else

if.then11:                                        ; preds = %if.end
  %9 = load ptr, ptr %buf.addr, align 8
  %10 = load ptr, ptr %in_buf.addr, align 8
  %11 = load i32, ptr %len.addr, align 4
  store i32 %11, ptr %_a2, align 4
  %12 = load i32, ptr %in_len.addr, align 4
  store i32 %12, ptr %_b3, align 4
  %13 = load i32, ptr %_a2, align 4
  %14 = load i32, ptr %_b3, align 4
  %cmp12 = icmp slt i32 %13, %14
  br i1 %cmp12, label %cond.true, label %cond.false

cond.true:                                        ; preds = %if.then11
  %15 = load i32, ptr %_a2, align 4
  br label %cond.end

cond.false:                                       ; preds = %if.then11
  %16 = load i32, ptr %_b3, align 4
  br label %cond.end

cond.end:                                         ; preds = %cond.false, %cond.true
  %cond = phi i32 [ %15, %cond.true ], [ %16, %cond.false ]
  store i32 %cond, ptr %tmp, align 4
  %17 = load i32, ptr %tmp, align 4
  %conv14 = sext i32 %17 to i64
  call void @llvm.memcpy.p0.p0.i64(ptr align 1 %9, ptr align 1 %10, i64 %conv14, i1 false)
  %18 = load i32, ptr %len.addr, align 4
  store i32 %18, ptr %_a4, align 4
  %19 = load i32, ptr %in_len.addr, align 4
  store i32 %19, ptr %_b5, align 4
  %20 = load i32, ptr %_a4, align 4
  %21 = load i32, ptr %_b5, align 4
  %cmp16 = icmp slt i32 %20, %21
  br i1 %cmp16, label %cond.true18, label %cond.false19

cond.true18:                                      ; preds = %cond.end
  %22 = load i32, ptr %_a4, align 4
  br label %cond.end20

cond.false19:                                     ; preds = %cond.end
  %23 = load i32, ptr %_b5, align 4
  br label %cond.end20

cond.end20:                                       ; preds = %cond.false19, %cond.true18
  %cond21 = phi i32 [ %22, %cond.true18 ], [ %23, %cond.false19 ]
  store i32 %cond21, ptr %tmp15, align 4
  %24 = load i32, ptr %tmp15, align 4
  store i32 %24, ptr %retval, align 4
  br label %return

if.else:                                          ; preds = %if.end
  %25 = load ptr, ptr %in_buf.addr, align 8
  %26 = load i32, ptr %in_len.addr, align 4
  %call23 = call i24 @scsi_parse_sense_buf(ptr noundef %25, i32 noundef %26)
  store i24 %call23, ptr %tmp.coerce, align 4
  call void @llvm.memcpy.p0.p0.i64(ptr align 1 %tmp22, ptr align 4 %tmp.coerce, i64 3, i1 false)
  call void @llvm.memcpy.p0.p0.i64(ptr align 1 %sense, ptr align 1 %tmp22, i64 3, i1 false)
  %27 = load ptr, ptr %buf.addr, align 8
  %28 = load i32, ptr %len.addr, align 4
  %conv24 = sext i32 %28 to i64
  %29 = load i8, ptr %fixed.addr, align 1
  %tobool25 = trunc i8 %29 to i1
  call void @llvm.memcpy.p0.p0.i64(ptr align 4 %sense.coerce, ptr align 1 %sense, i64 3, i1 false)
  %30 = load i24, ptr %sense.coerce, align 4
  %call26 = call i32 @scsi_build_sense_buf(ptr noundef %27, i64 noundef %conv24, i24 %30, i1 noundef zeroext %tobool25)
  store i32 %call26, ptr %retval, align 4
  br label %return

return:                                           ; preds = %if.else, %cond.end20, %if.then
  %31 = load i32, ptr %retval, align 4
  ret i32 %31
}