; Function Attrs: nounwind sspstrong uwtable
define dso_local i32 @scsi_convert_sense(ptr noundef readonly captures(none) %in_buf, i32 noundef %in_len, ptr noundef writeonly captures(none) %buf, i32 noundef %len, i1 noundef zeroext %fixed) local_unnamed_addr #1 {
entry:
  %buf.i19 = alloca [18 x i8], align 16
  %buf.i = alloca [18 x i8], align 16
  %cmp = icmp eq i32 %in_len, 0
  %buf.i.13.buf.i.13.buf.i.13.gep33.sroa_idx = getelementptr inbounds nuw i8, ptr %buf.i, i64 13
  %buf.i19.3.buf.i19.3.buf.i19.3.gep.sroa_idx = getelementptr inbounds nuw i8, ptr %buf.i19, i64 3
  %buf.i19.13.buf.i19.13.buf.i19.13.gep34.sroa_idx = getelementptr inbounds nuw i8, ptr %buf.i19, i64 13
  br i1 %cmp, label %if.then, label %if.end

if.then:                                          ; preds = %entry
  %buf.i.3.buf.i.3.buf.i.3.gep.sroa_idx = getelementptr inbounds nuw i8, ptr %buf.i, i64 3
  %conv = sext i32 %len to i64
  call void @llvm.lifetime.start.p0(i64 18, ptr nonnull %buf.i)
  call void @llvm.memset.p0.i64(ptr noundef nonnull align 16 dereferenceable(18) %buf.i, i8 0, i64 18, i1 false)
  br i1 %fixed, label %if.then.i, label %scsi_build_sense_buf.exit

if.then.i:                                        ; preds = %if.then
  %buf.i.7.buf.i.7.buf.i.7.buf.7.buf.7.buf.7.arrayidx2.sroa_idx = getelementptr inbounds nuw i8, ptr %buf.i, i64 7
  store i8 10, ptr %buf.i.7.buf.i.7.buf.i.7.buf.7.buf.7.buf.7.arrayidx2.sroa_idx, align 1
  br label %scsi_build_sense_buf.exit

scsi_build_sense_buf.exit:                        ; preds = %if.then, %if.then.i
  %.sink8.i.sroa.phi = phi ptr [ %buf.i.13.buf.i.13.buf.i.13.gep33.sroa_idx, %if.then.i ], [ %buf.i.3.buf.i.3.buf.i.3.gep.sroa_idx, %if.then ]
  %.sink.i = phi i8 [ 112, %if.then.i ], [ 114, %if.then ]
  %len.0.i = phi i64 [ 18, %if.then.i ], [ 8, %if.then ]
  store i8 0, ptr %.sink8.i.sroa.phi, align 1
  store i8 %.sink.i, ptr %buf.i, align 16
  %buf.i.2.buf.i.2.buf.i.2..sroa_idx = getelementptr inbounds nuw i8, ptr %buf.i, i64 2
  store i8 0, ptr %buf.i.2.buf.i.2.buf.i.2..sroa_idx, align 2
  %cond.i = tail call i64 @llvm.umin.i64(i64 %len.0.i, i64 %conv)
  %conv13.i = trunc nuw nsw i64 %cond.i to i32
  call void @llvm.memcpy.p0.p0.i64(ptr align 1 %buf, ptr nonnull align 16 %buf.i, i64 %cond.i, i1 false)
  call void @llvm.lifetime.end.p0(i64 18, ptr nonnull %buf.i)
  br label %return

if.end:                                           ; preds = %entry
  %0 = load i8, ptr %in_buf, align 1
  %1 = and i8 %0, 2
  %2 = icmp ne i8 %1, 0
  %cmp9 = xor i1 %fixed, %2
  br i1 %cmp9, label %if.then11, label %if.else

if.then11:                                        ; preds = %if.end
  %cond = tail call i32 @llvm.smin.i32(i32 %len, i32 %in_len)
  %conv14 = sext i32 %cond to i64
  tail call void @llvm.memcpy.p0.p0.i64(ptr align 1 %buf, ptr nonnull align 1 %in_buf, i64 %conv14, i1 false)
  br label %return

if.else:                                          ; preds = %if.end
  %cmp.i = icmp sgt i32 %in_len, 0
  br i1 %cmp.i, label %if.end.i, label %if.else.i17

if.else.i17:                                      ; preds = %if.else
  tail call void @__assert_fail(ptr noundef nonnull @.str, ptr noundef nonnull @.str.1, i32 noundef 100, ptr noundef nonnull @__PRETTY_FUNCTION__.scsi_parse_sense_buf) #11
  unreachable

if.end.i:                                         ; preds = %if.else
  %cmp1.i = icmp eq i8 %1, 0
  br i1 %cmp1.i, label %if.then3.i, label %if.else11.i

if.then3.i:                                       ; preds = %if.end.i
  %cmp4.i = icmp samesign ult i32 %in_len, 14
  br i1 %cmp4.i, label %scsi_parse_sense_buf.exit, label %if.end22.i

if.else11.i:                                      ; preds = %if.end.i
  %cmp12.i = icmp samesign ult i32 %in_len, 4
  br i1 %cmp12.i, label %scsi_parse_sense_buf.exit, label %if.end22.i

if.end22.i:                                       ; preds = %if.else11.i, %if.then3.i
  %.sink13.i = phi i64 [ 2, %if.then3.i ], [ 1, %if.else11.i ]
  %.sink12.i = phi i64 [ 12, %if.then3.i ], [ 2, %if.else11.i ]
  %.sink.i18 = phi i64 [ 13, %if.then3.i ], [ 3, %if.else11.i ]
  %arrayidx16.i = getelementptr i8, ptr %in_buf, i64 %.sink13.i
  %arrayidx18.i = getelementptr i8, ptr %in_buf, i64 %.sink12.i
  %arrayidx20.i = getelementptr i8, ptr %in_buf, i64 %.sink.i18
  %sense.sroa.0.0.i = load i8, ptr %arrayidx16.i, align 1
  %sense.sroa.3.0.i = load i8, ptr %arrayidx18.i, align 1
  %sense.sroa.5.0.i = load i8, ptr %arrayidx20.i, align 1
  br label %scsi_parse_sense_buf.exit

scsi_parse_sense_buf.exit:                        ; preds = %if.then3.i, %if.else11.i, %if.end22.i
  %retval.sroa.0.0.i = phi i8 [ %sense.sroa.0.0.i, %if.end22.i ], [ 11, %if.then3.i ], [ 11, %if.else11.i ]
  %retval.sroa.4.0.i = phi i8 [ %sense.sroa.3.0.i, %if.end22.i ], [ 0, %if.then3.i ], [ 0, %if.else11.i ]
  %retval.sroa.5.0.i = phi i8 [ %sense.sroa.5.0.i, %if.end22.i ], [ 6, %if.then3.i ], [ 6, %if.else11.i ]
  %conv24 = sext i32 %len to i64
  call void @llvm.lifetime.start.p0(i64 18, ptr nonnull %buf.i19)
  call void @llvm.memset.p0.i64(ptr noundef nonnull align 16 dereferenceable(18) %buf.i19, i8 0, i64 18, i1 false)
  br i1 %fixed, label %if.then.i29, label %if.else.i20

if.then.i29:                                      ; preds = %scsi_parse_sense_buf.exit
  %buf.i19.7.buf.i19.7.buf.i19.7.buf.7.buf.7.buf.7.arrayidx2.sroa_idx = getelementptr inbounds nuw i8, ptr %buf.i19, i64 7
  store i8 10, ptr %buf.i19.7.buf.i19.7.buf.i19.7.buf.7.buf.7.buf.7.arrayidx2.sroa_idx, align 1
  %buf.i19.12.buf.i19.12.buf.i19.12.buf.12.buf.12.buf.12.arrayidx3.sroa_idx = getelementptr inbounds nuw i8, ptr %buf.i19, i64 12
  store i8 %retval.sroa.4.0.i, ptr %buf.i19.12.buf.i19.12.buf.i19.12.buf.12.buf.12.buf.12.arrayidx3.sroa_idx, align 4
  br label %scsi_build_sense_buf.exit32

if.else.i20:                                      ; preds = %scsi_parse_sense_buf.exit
  %buf.i19.1.buf.i19.1.buf.i19.1.buf.1.buf.1.buf.1.arrayidx7.sroa_idx = getelementptr inbounds nuw i8, ptr %buf.i19, i64 1
  store i8 %retval.sroa.0.0.i, ptr %buf.i19.1.buf.i19.1.buf.i19.1.buf.1.buf.1.buf.1.arrayidx7.sroa_idx, align 1
  br label %scsi_build_sense_buf.exit32

scsi_build_sense_buf.exit32:                      ; preds = %if.then.i29, %if.else.i20
  %.sink8.i23.sroa.phi = phi ptr [ %buf.i19.3.buf.i19.3.buf.i19.3.gep.sroa_idx, %if.else.i20 ], [ %buf.i19.13.buf.i19.13.buf.i19.13.gep34.sroa_idx, %if.then.i29 ]
  %.sink.i24 = phi i8 [ 114, %if.else.i20 ], [ 112, %if.then.i29 ]
  %sense.sroa.3.0.extract.trunc.sink.i = phi i8 [ %retval.sroa.4.0.i, %if.else.i20 ], [ %retval.sroa.0.0.i, %if.then.i29 ]
  %len.0.i25 = phi i64 [ 8, %if.else.i20 ], [ 18, %if.then.i29 ]
  store i8 %retval.sroa.5.0.i, ptr %.sink8.i23.sroa.phi, align 1
  store i8 %.sink.i24, ptr %buf.i19, align 16
  %buf.i19.2.buf.i19.2.buf.i19.2..sroa_idx = getelementptr inbounds nuw i8, ptr %buf.i19, i64 2
  store i8 %sense.sroa.3.0.extract.trunc.sink.i, ptr %buf.i19.2.buf.i19.2.buf.i19.2..sroa_idx, align 2
  %cond.i27 = tail call i64 @llvm.umin.i64(i64 %len.0.i25, i64 %conv24)
  %conv13.i28 = trunc nuw nsw i64 %cond.i27 to i32
  call void @llvm.memcpy.p0.p0.i64(ptr align 1 %buf, ptr nonnull align 16 %buf.i19, i64 %cond.i27, i1 false)
  call void @llvm.lifetime.end.p0(i64 18, ptr nonnull %buf.i19)
  br label %return

return:                                           ; preds = %scsi_build_sense_buf.exit32, %if.then11, %scsi_build_sense_buf.exit
  %retval.0 = phi i32 [ %conv13.i, %scsi_build_sense_buf.exit ], [ %cond, %if.then11 ], [ %conv13.i28, %scsi_build_sense_buf.exit32 ]
  ret i32 %retval.0
}